; ModuleID = 'source-C-CXX/19/781.cpp'
source_filename = "source-C-CXX/19/781.cpp"
target datalayout = "e-m:e-p270:32:32-p271:32:32-p272:64:64-i64:64-f80:128-n8:16:32:64-S128"
target triple = "x86_64-pc-linux-gnu"

%"class.std::ios_base::Init" = type { i8 }
%"class.std::basic_istream" = type { i32 (...)**, i64, %"class.std::basic_ios" }
%"class.std::basic_ios" = type { %"class.std::ios_base", %"class.std::basic_ostream"*, i8, i8, %"class.std::basic_streambuf"*, %"class.std::ctype"*, %"class.std::num_put"*, %"class.std::num_get"* }
%"class.std::ios_base" = type { i32 (...)**, i64, i64, i32, i32, i32, %"struct.std::ios_base::_Callback_list"*, %"struct.std::ios_base::_Words", [8 x %"struct.std::ios_base::_Words"], i32, %"struct.std::ios_base::_Words"*, %"class.std::locale" }
%"struct.std::ios_base::_Callback_list" = type { %"struct.std::ios_base::_Callback_list"*, void (i32, %"class.std::ios_base"*, i32)*, i32, i32 }
%"struct.std::ios_base::_Words" = type { i8*, i64 }
%"class.std::locale" = type { %"class.std::locale::_Impl"* }
%"class.std::locale::_Impl" = type { i32, %"class.std::locale::facet"**, i64, %"class.std::locale::facet"**, i8** }
%"class.std::locale::facet" = type <{ i32 (...)**, i32, [4 x i8] }>
%"class.std::basic_ostream" = type { i32 (...)**, %"class.std::basic_ios" }
%"class.std::basic_streambuf" = type { i32 (...)**, i8*, i8*, i8*, i8*, i8*, i8*, %"class.std::locale" }
%"class.std::ctype" = type <{ %"class.std::locale::facet.base", [4 x i8], %struct.__locale_struct*, i8, [7 x i8], i32*, i32*, i16*, i8, [256 x i8], [256 x i8], i8, [6 x i8] }>
%"class.std::locale::facet.base" = type <{ i32 (...)**, i32 }>
%struct.__locale_struct = type { [13 x %struct.__locale_data*], i16*, i32*, i32*, [13 x i8*] }
%struct.__locale_data = type opaque
%"class.std::num_put" = type { %"class.std::locale::facet.base", [4 x i8] }
%"class.std::num_get" = type { %"class.std::locale::facet.base", [4 x i8] }

@_ZStL8__ioinit = internal global %"class.std::ios_base::Init" zeroinitializer, align 1
@__dso_handle = external hidden global i8
@_ZSt3cin = external global %"class.std::basic_istream", align 8
@_ZSt4cout = external global %"class.std::basic_ostream", align 8
@llvm.global_ctors = appending global [1 x { i32, void ()*, i8* }] [{ i32, void ()*, i8* } { i32 65535, void ()* @_GLOBAL__sub_I_781.cpp, i8* null }]

declare void @_ZNSt8ios_base4InitC1Ev(%"class.std::ios_base::Init"* nonnull align 1 dereferenceable(1)) unnamed_addr #0

; Function Attrs: nounwind
declare void @_ZNSt8ios_base4InitD1Ev(%"class.std::ios_base::Init"* nonnull align 1 dereferenceable(1)) unnamed_addr #1

; Function Attrs: nofree nounwind
declare i32 @__cxa_atexit(void (i8*)*, i8*, i8*) local_unnamed_addr #2

; Function Attrs: mustprogress norecurse sspstrong uwtable
define dso_local i32 @main() local_unnamed_addr #3 {
  %1 = alloca i8, align 1
  %2 = alloca [11 x i8], align 1
  %3 = alloca [4 x i8], align 1
  %4 = getelementptr inbounds [11 x i8], [11 x i8]* %2, i64 0, i64 0
  call void @llvm.lifetime.start.p0i8(i64 11, i8* nonnull %4) #8
  %5 = getelementptr inbounds [4 x i8], [4 x i8]* %3, i64 0, i64 0
  call void @llvm.lifetime.start.p0i8(i64 4, i8* nonnull %5) #8
  %6 = getelementptr inbounds [11 x i8], [11 x i8]* %2, i64 0, i64 1
  call void @_ZSt17__istream_extractRSiPcl(%"class.std::basic_istream"* nonnull align 8 dereferenceable(16) @_ZSt3cin, i8* nonnull %4, i64 11)
  %7 = load i8*, i8** bitcast (%"class.std::basic_istream"* @_ZSt3cin to i8**), align 8, !tbaa !5
  %8 = getelementptr i8, i8* %7, i64 -24
  %9 = bitcast i8* %8 to i64*
  %10 = load i64, i64* %9, align 8
  %11 = add nsw i64 %10, 32
  %12 = getelementptr inbounds i8, i8* bitcast (%"class.std::basic_istream"* @_ZSt3cin to i8*), i64 %11
  %13 = bitcast i8* %12 to i32*
  %14 = load i32, i32* %13, align 8, !tbaa !8
  %15 = and i32 %14, 5
  %16 = icmp eq i32 %15, 0
  br i1 %16, label %17, label %90

17:                                               ; preds = %0
  %18 = ptrtoint [11 x i8]* %2 to i64
  %19 = sub i64 1, %18
  %20 = getelementptr [11 x i8], [11 x i8]* %2, i64 0, i64 %19
  br label %21

21:                                               ; preds = %17, %76
  call void @_ZSt17__istream_extractRSiPcl(%"class.std::basic_istream"* nonnull align 8 dereferenceable(16) @_ZSt3cin, i8* nonnull %5, i64 4)
  %22 = load i8, i8* %6, align 1, !tbaa !18
  %23 = icmp eq i8 %22, 0
  br i1 %23, label %26, label %30

24:                                               ; preds = %30
  %25 = icmp ugt i8* %4, %36
  br i1 %25, label %46, label %26

26:                                               ; preds = %21, %24
  %27 = phi i8* [ %36, %24 ], [ %4, %21 ]
  %28 = ptrtoint i8* %27 to i64
  %29 = getelementptr i8, i8* %20, i64 %28
  br label %40

30:                                               ; preds = %21, %30
  %31 = phi i8 [ %38, %30 ], [ %22, %21 ]
  %32 = phi i8* [ %36, %30 ], [ %4, %21 ]
  %33 = phi i8* [ %37, %30 ], [ %6, %21 ]
  %34 = load i8, i8* %32, align 1, !tbaa !18
  %35 = icmp slt i8 %34, %31
  %36 = select i1 %35, i8* %33, i8* %32
  %37 = getelementptr inbounds i8, i8* %33, i64 1
  %38 = load i8, i8* %37, align 1, !tbaa !18
  %39 = icmp eq i8 %38, 0
  br i1 %39, label %24, label %30, !llvm.loop !19

40:                                               ; preds = %26, %40
  %41 = phi i8* [ %44, %40 ], [ %4, %26 ]
  %42 = load i8, i8* %41, align 1, !tbaa !18
  call void @llvm.lifetime.start.p0i8(i64 1, i8* nonnull %1)
  store i8 %42, i8* %1, align 1, !tbaa !18
  %43 = call nonnull align 8 dereferenceable(8) %"class.std::basic_ostream"* @_ZSt16__ostream_insertIcSt11char_traitsIcEERSt13basic_ostreamIT_T0_ES6_PKS3_l(%"class.std::basic_ostream"* nonnull align 8 dereferenceable(8) @_ZSt4cout, i8* nonnull %1, i64 1)
  call void @llvm.lifetime.end.p0i8(i64 1, i8* nonnull %1)
  %44 = getelementptr inbounds i8, i8* %41, i64 1
  %45 = icmp eq i8* %44, %29
  br i1 %45, label %46, label %40, !llvm.loop !21

46:                                               ; preds = %40, %24
  %47 = phi i8* [ %36, %24 ], [ %27, %40 ]
  %48 = call i64 @strlen(i8* noundef nonnull dereferenceable(1) %5) #8
  %49 = call nonnull align 8 dereferenceable(8) %"class.std::basic_ostream"* @_ZSt16__ostream_insertIcSt11char_traitsIcEERSt13basic_ostreamIT_T0_ES6_PKS3_l(%"class.std::basic_ostream"* nonnull align 8 dereferenceable(8) @_ZSt4cout, i8* nonnull %5, i64 %48)
  %50 = getelementptr inbounds i8, i8* %47, i64 1
  %51 = call i64 @strlen(i8* noundef nonnull dereferenceable(1) %50) #8
  %52 = call nonnull align 8 dereferenceable(8) %"class.std::basic_ostream"* @_ZSt16__ostream_insertIcSt11char_traitsIcEERSt13basic_ostreamIT_T0_ES6_PKS3_l(%"class.std::basic_ostream"* nonnull align 8 dereferenceable(8) @_ZSt4cout, i8* nonnull %50, i64 %51)
  %53 = load i8*, i8** bitcast (%"class.std::basic_ostream"* @_ZSt4cout to i8**), align 8, !tbaa !5
  %54 = getelementptr i8, i8* %53, i64 -24
  %55 = bitcast i8* %54 to i64*
  %56 = load i64, i64* %55, align 8
  %57 = add nsw i64 %56, 240
  %58 = getelementptr inbounds i8, i8* bitcast (%"class.std::basic_ostream"* @_ZSt4cout to i8*), i64 %57
  %59 = bitcast i8* %58 to %"class.std::ctype"**
  %60 = load %"class.std::ctype"*, %"class.std::ctype"** %59, align 8, !tbaa !22
  %61 = icmp eq %"class.std::ctype"* %60, null
  br i1 %61, label %62, label %63

62:                                               ; preds = %46
  call void @_ZSt16__throw_bad_castv() #9
  unreachable

63:                                               ; preds = %46
  %64 = getelementptr inbounds %"class.std::ctype", %"class.std::ctype"* %60, i64 0, i32 8
  %65 = load i8, i8* %64, align 8, !tbaa !25
  %66 = icmp eq i8 %65, 0
  br i1 %66, label %70, label %67

67:                                               ; preds = %63
  %68 = getelementptr inbounds %"class.std::ctype", %"class.std::ctype"* %60, i64 0, i32 9, i64 10
  %69 = load i8, i8* %68, align 1, !tbaa !18
  br label %76

70:                                               ; preds = %63
  call void @_ZNKSt5ctypeIcE13_M_widen_initEv(%"class.std::ctype"* nonnull align 8 dereferenceable(570) %60)
  %71 = bitcast %"class.std::ctype"* %60 to i8 (%"class.std::ctype"*, i8)***
  %72 = load i8 (%"class.std::ctype"*, i8)**, i8 (%"class.std::ctype"*, i8)*** %71, align 8, !tbaa !5
  %73 = getelementptr inbounds i8 (%"class.std::ctype"*, i8)*, i8 (%"class.std::ctype"*, i8)** %72, i64 6
  %74 = load i8 (%"class.std::ctype"*, i8)*, i8 (%"class.std::ctype"*, i8)** %73, align 8
  %75 = call signext i8 %74(%"class.std::ctype"* nonnull align 8 dereferenceable(570) %60, i8 signext 10)
  br label %76

76:                                               ; preds = %67, %70
  %77 = phi i8 [ %69, %67 ], [ %75, %70 ]
  %78 = call nonnull align 8 dereferenceable(8) %"class.std::basic_ostream"* @_ZNSo3putEc(%"class.std::basic_ostream"* nonnull align 8 dereferenceable(8) @_ZSt4cout, i8 signext %77)
  %79 = call nonnull align 8 dereferenceable(8) %"class.std::basic_ostream"* @_ZNSo5flushEv(%"class.std::basic_ostream"* nonnull align 8 dereferenceable(8) %78)
  call void @_ZSt17__istream_extractRSiPcl(%"class.std::basic_istream"* nonnull align 8 dereferenceable(16) @_ZSt3cin, i8* nonnull %4, i64 11)
  %80 = load i8*, i8** bitcast (%"class.std::basic_istream"* @_ZSt3cin to i8**), align 8, !tbaa !5
  %81 = getelementptr i8, i8* %80, i64 -24
  %82 = bitcast i8* %81 to i64*
  %83 = load i64, i64* %82, align 8
  %84 = add nsw i64 %83, 32
  %85 = getelementptr inbounds i8, i8* bitcast (%"class.std::basic_istream"* @_ZSt3cin to i8*), i64 %84
  %86 = bitcast i8* %85 to i32*
  %87 = load i32, i32* %86, align 8, !tbaa !8
  %88 = and i32 %87, 5
  %89 = icmp eq i32 %88, 0
  br i1 %89, label %21, label %90, !llvm.loop !27

90:                                               ; preds = %76, %0
  call void @llvm.lifetime.end.p0i8(i64 4, i8* nonnull %5) #8
  call void @llvm.lifetime.end.p0i8(i64 11, i8* nonnull %4) #8
  ret i32 0
}

; Function Attrs: argmemonly mustprogress nofree nosync nounwind willreturn
declare void @llvm.lifetime.start.p0i8(i64 immarg, i8* nocapture) #4

; Function Attrs: argmemonly mustprogress nofree nosync nounwind willreturn
declare void @llvm.lifetime.end.p0i8(i64 immarg, i8* nocapture) #4

declare void @_ZSt17__istream_extractRSiPcl(%"class.std::basic_istream"* nonnull align 8 dereferenceable(16), i8*, i64) local_unnamed_addr #0

declare nonnull align 8 dereferenceable(8) %"class.std::basic_ostream"* @_ZSt16__ostream_insertIcSt11char_traitsIcEERSt13basic_ostreamIT_T0_ES6_PKS3_l(%"class.std::basic_ostream"* nonnull align 8 dereferenceable(8), i8*, i64) local_unnamed_addr #0

; Function Attrs: argmemonly mustprogress nofree nounwind readonly willreturn
declare i64 @strlen(i8* nocapture) local_unnamed_addr #5

declare nonnull align 8 dereferenceable(8) %"class.std::basic_ostream"* @_ZNSo3putEc(%"class.std::basic_ostream"* nonnull align 8 dereferenceable(8), i8 signext) local_unnamed_addr #0

declare nonnull align 8 dereferenceable(8) %"class.std::basic_ostream"* @_ZNSo5flushEv(%"class.std::basic_ostream"* nonnull align 8 dereferenceable(8)) local_unnamed_addr #0

; Function Attrs: noreturn
declare void @_ZSt16__throw_bad_castv() local_unnamed_addr #6

declare void @_ZNKSt5ctypeIcE13_M_widen_initEv(%"class.std::ctype"* nonnull align 8 dereferenceable(570)) local_unnamed_addr #0

; Function Attrs: sspstrong uwtable
define internal void @_GLOBAL__sub_I_781.cpp() #7 section ".text.startup" {
  tail call void @_ZNSt8ios_base4InitC1Ev(%"class.std::ios_base::Init"* nonnull align 1 dereferenceable(1) @_ZStL8__ioinit)
  %1 = tail call i32 @__cxa_atexit(void (i8*)* bitcast (void (%"class.std::ios_base::Init"*)* @_ZNSt8ios_base4InitD1Ev to void (i8*)*), i8* getelementptr inbounds (%"class.std::ios_base::Init", %"class.std::ios_base::Init"* @_ZStL8__ioinit, i64 0, i32 0), i8* nonnull @__dso_handle) #8
  ret void
}


!llvm.module.flags = !{!0, !1, !2, !3}
!llvm.ident = !{!4}

!0 = !{i32 1, !"wchar_size", i32 4}
!1 = !{i32 7, !"PIC Level", i32 2}
!2 = !{i32 7, !"PIE Level", i32 2}
!3 = !{i32 7, !"uwtable", i32 1}
!4 = !{!"clang version 13.0.0"}
!5 = !{!6, !6, i64 0}
!6 = !{!"vtable pointer", !7, i64 0}
!7 = !{!"Simple C++ TBAA"}
!8 = !{!9, !13, i64 32}
!9 = !{!"_ZTSSt8ios_base", !10, i64 8, !10, i64 16, !12, i64 24, !13, i64 28, !13, i64 32, !14, i64 40, !15, i64 48, !11, i64 64, !16, i64 192, !14, i64 200, !17, i64 208}
!10 = !{!"long", !11, i64 0}
!11 = !{!"omnipotent char", !7, i64 0}
!12 = !{!"_ZTSSt13_Ios_Fmtflags", !11, i64 0}
!13 = !{!"_ZTSSt12_Ios_Iostate", !11, i64 0}
!14 = !{!"any pointer", !11, i64 0}
!15 = !{!"_ZTSNSt8ios_base6_WordsE", !14, i64 0, !10, i64 8}
!16 = !{!"int", !11, i64 0}
!17 = !{!"_ZTSSt6locale", !14, i64 0}
!18 = !{!11, !11, i64 0}
!19 = distinct !{!19, !20}
!20 = !{!"llvm.loop.mustprogress"}
!21 = distinct !{!21, !20}
!22 = !{!23, !14, i64 240}
!23 = !{!"_ZTSSt9basic_iosIcSt11char_traitsIcEE", !14, i64 216, !11, i64 224, !24, i64 225, !14, i64 232, !14, i64 240, !14, i64 248, !14, i64 256}
!24 = !{!"bool", !11, i64 0}
!25 = !{!26, !11, i64 56}
!26 = !{!"_ZTSSt5ctypeIcE", !14, i64 16, !24, i64 24, !14, i64 32, !14, i64 40, !14, i64 48, !11, i64 56, !11, i64 57, !11, i64 313, !11, i64 569}
!27 = distinct !{!27, !20}
